; ModuleID = '3/3299.cpp'
source_filename = "3/3299.cpp"
target datalayout = "e-m:e-p270:32:32-p271:32:32-p272:64:64-i64:64-f80:128-n8:16:32:64-S128"
target triple = "x86_64-pc-linux-gnu"

%"class.std::ios_base::Init" = type { i8 }
%"class.std::basic_istream" = type { i32 (...)**, i64, %"class.std::basic_ios" }
%"class.std::basic_ios" = type { %"class.std::ios_base", %"class.std::basic_ostream"*, i8, i8, %"class.std::basic_streambuf"*, %"class.std::ctype"*, %"class.std::num_put"*, %"class.std::num_get"* }
%"class.std::ios_base" = type { i32 (...)**, i64, i64, i32, i32, i32, %"struct.std::ios_base::_Callback_list"*, %"struct.std::ios_base::_Words", [8 x %"struct.std::ios_base::_Words"], i32, %"struct.std::ios_base::_Words"*, %"class.std::locale" }
%"struct.std::ios_base::_Callback_list" = type { %"struct.std::ios_base::_Callback_list"*, void (i32, %"class.std::ios_base"*, i32)*, i32, i32 }
%"struct.std::ios_base::_Words" = type { i8*, i64 }
%"class.std::locale" = type { %"class.std::locale::_Impl"* }
%"class.std::locale::_Impl" = type { i32, %"class.std::locale::facet"**, i64, %"class.std::locale::facet"**, i8** }
%"class.std::locale::facet" = type <{ i32 (...)**, i32, [4 x i8] }>
%"class.std::basic_ostream" = type { i32 (...)**, %"class.std::basic_ios" }
%"class.std::basic_streambuf" = type { i32 (...)**, i8*, i8*, i8*, i8*, i8*, i8*, %"class.std::locale" }
%"class.std::ctype" = type <{ %"class.std::locale::facet.base", [4 x i8], %struct.__locale_struct*, i8, [7 x i8], i32*, i32*, i16*, i8, [256 x i8], [256 x i8], i8, [6 x i8] }>
%"class.std::locale::facet.base" = type <{ i32 (...)**, i32 }>
%struct.__locale_struct = type { [13 x %struct.__locale_data*], i16*, i32*, i32*, [13 x i8*] }
%struct.__locale_data = type opaque
%"class.std::num_put" = type { %"class.std::locale::facet.base", [4 x i8] }
%"class.std::num_get" = type { %"class.std::locale::facet.base", [4 x i8] }

@_ZStL8__ioinit = internal global %"class.std::ios_base::Init" zeroinitializer, align 1
@__dso_handle = external hidden global i8
@_ZSt3cin = external dso_local global %"class.std::basic_istream", align 8
@_ZSt4cout = external dso_local global %"class.std::basic_ostream", align 8
@.str = private unnamed_addr constant [4 x i8] c"yes\00", align 1
@.str.1 = private unnamed_addr constant [3 x i8] c"no\00", align 1
@llvm.global_ctors = appending global [1 x { i32, void ()*, i8* }] [{ i32, void ()*, i8* } { i32 65535, void ()* @_GLOBAL__sub_I_3299.cpp, i8* null }]

; Function Attrs: noinline uwtable
define internal void @__cxx_global_var_init() #0 section ".text.startup" {
  call void @_ZNSt8ios_base4InitC1Ev(%"class.std::ios_base::Init"* @_ZStL8__ioinit)
  %1 = call i32 @__cxa_atexit(void (i8*)* bitcast (void (%"class.std::ios_base::Init"*)* @_ZNSt8ios_base4InitD1Ev to void (i8*)*), i8* getelementptr inbounds (%"class.std::ios_base::Init", %"class.std::ios_base::Init"* @_ZStL8__ioinit, i32 0, i32 0), i8* @__dso_handle) #3
  ret void
}

declare dso_local void @_ZNSt8ios_base4InitC1Ev(%"class.std::ios_base::Init"*) unnamed_addr #1

; Function Attrs: nounwind
declare dso_local void @_ZNSt8ios_base4InitD1Ev(%"class.std::ios_base::Init"*) unnamed_addr #2

; Function Attrs: nounwind
declare dso_local i32 @__cxa_atexit(void (i8*)*, i8*, i8*) #3

; Function Attrs: noinline norecurse uwtable
define dso_local i32 @main() #4 {
  %1 = alloca i32, align 4
  %2 = alloca i32, align 4
  %3 = alloca i32, align 4
  %4 = alloca [1008 x i32], align 16
  %5 = alloca i32, align 4
  %6 = alloca i32, align 4
  %7 = alloca i32, align 4
  %8 = alloca i32, align 4
  store i32 0, i32* %1, align 4
  store i32 0, i32* %7, align 4
  %9 = call dereferenceable(280) %"class.std::basic_istream"* @_ZNSirsERi(%"class.std::basic_istream"* @_ZSt3cin, i32* dereferenceable(4) %2)
  %10 = call dereferenceable(280) %"class.std::basic_istream"* @_ZNSirsERi(%"class.std::basic_istream"* %9, i32* dereferenceable(4) %3)
  store i32 0, i32* %5, align 4
  br label %11

11:                                               ; preds = %20, %0
  %12 = load i32, i32* %5, align 4
  %13 = load i32, i32* %2, align 4
  %14 = icmp slt i32 %12, %13
  br i1 %14, label %15, label %23

15:                                               ; preds = %11
  %16 = load i32, i32* %5, align 4
  %17 = sext i32 %16 to i64
  %18 = getelementptr inbounds [1008 x i32], [1008 x i32]* %4, i64 0, i64 %17
  %19 = call dereferenceable(280) %"class.std::basic_istream"* @_ZNSirsERi(%"class.std::basic_istream"* @_ZSt3cin, i32* dereferenceable(4) %18)
  br label %20

20:                                               ; preds = %15
  %21 = load i32, i32* %5, align 4
  %22 = add nsw i32 %21, 1
  store i32 %22, i32* %5, align 4
  br label %11

23:                                               ; preds = %11
  %24 = getelementptr inbounds [1008 x i32], [1008 x i32]* %4, i64 0, i64 0
  %25 = bitcast i32* %24 to i8*
  %26 = load i32, i32* %2, align 4
  %27 = sext i32 %26 to i64
  call void @qsort(i8* %25, i64 %27, i64 4, i32 (i8*, i8*)* @_Z9mycomparePKvS0_)
  store i32 0, i32* %5, align 4
  br label %28

28:                                               ; preds = %76, %23
  %29 = load i32, i32* %5, align 4
  %30 = load i32, i32* %2, align 4
  %31 = sdiv i32 %30, 2
  %32 = icmp slt i32 %29, %31
  br i1 %32, label %33, label %79

33:                                               ; preds = %28
  %34 = load i32, i32* %2, align 4
  %35 = sub nsw i32 %34, 1
  store i32 %35, i32* %8, align 4
  br label %36

36:                                               ; preds = %70, %33
  %37 = load i32, i32* %8, align 4
  %38 = load i32, i32* %5, align 4
  %39 = icmp sgt i32 %37, %38
  br i1 %39, label %40, label %71

40:                                               ; preds = %36
  %41 = load i32, i32* %5, align 4
  %42 = sext i32 %41 to i64
  %43 = getelementptr inbounds [1008 x i32], [1008 x i32]* %4, i64 0, i64 %42
  %44 = load i32, i32* %43, align 4
  %45 = load i32, i32* %8, align 4
  %46 = sext i32 %45 to i64
  %47 = getelementptr inbounds [1008 x i32], [1008 x i32]* %4, i64 0, i64 %46
  %48 = load i32, i32* %47, align 4
  %49 = add nsw i32 %44, %48
  %50 = load i32, i32* %3, align 4
  %51 = icmp eq i32 %49, %50
  br i1 %51, label %52, label %53

52:                                               ; preds = %40
  store i32 1, i32* %7, align 4
  br label %71

53:                                               ; preds = %40
  %54 = load i32, i32* %5, align 4
  %55 = sext i32 %54 to i64
  %56 = getelementptr inbounds [1008 x i32], [1008 x i32]* %4, i64 0, i64 %55
  %57 = load i32, i32* %56, align 4
  %58 = load i32, i32* %8, align 4
  %59 = sext i32 %58 to i64
  %60 = getelementptr inbounds [1008 x i32], [1008 x i32]* %4, i64 0, i64 %59
  %61 = load i32, i32* %60, align 4
  %62 = add nsw i32 %57, %61
  %63 = load i32, i32* %3, align 4
  %64 = icmp slt i32 %62, %63
  br i1 %64, label %65, label %66

65:                                               ; preds = %53
  br label %71

66:                                               ; preds = %53
  %67 = load i32, i32* %8, align 4
  %68 = add nsw i32 %67, -1
  store i32 %68, i32* %8, align 4
  br label %69

69:                                               ; preds = %66
  br label %70

70:                                               ; preds = %69
  br label %36

71:                                               ; preds = %65, %52, %36
  %72 = load i32, i32* %7, align 4
  %73 = icmp eq i32 %72, 1
  br i1 %73, label %74, label %75

74:                                               ; preds = %71
  br label %79

75:                                               ; preds = %71
  br label %76

76:                                               ; preds = %75
  %77 = load i32, i32* %5, align 4
  %78 = add nsw i32 %77, 1
  store i32 %78, i32* %5, align 4
  br label %28

79:                                               ; preds = %74, %28
  %80 = load i32, i32* %7, align 4
  %81 = icmp eq i32 %80, 1
  br i1 %81, label %82, label %85

82:                                               ; preds = %79
  %83 = call dereferenceable(272) %"class.std::basic_ostream"* @_ZStlsISt11char_traitsIcEERSt13basic_ostreamIcT_ES5_PKc(%"class.std::basic_ostream"* dereferenceable(272) @_ZSt4cout, i8* getelementptr inbounds ([4 x i8], [4 x i8]* @.str, i64 0, i64 0))
  %84 = call dereferenceable(272) %"class.std::basic_ostream"* @_ZNSolsEPFRSoS_E(%"class.std::basic_ostream"* %83, %"class.std::basic_ostream"* (%"class.std::basic_ostream"*)* @_ZSt4endlIcSt11char_traitsIcEERSt13basic_ostreamIT_T0_ES6_)
  br label %88

85:                                               ; preds = %79
  %86 = call dereferenceable(272) %"class.std::basic_ostream"* @_ZStlsISt11char_traitsIcEERSt13basic_ostreamIcT_ES5_PKc(%"class.std::basic_ostream"* dereferenceable(272) @_ZSt4cout, i8* getelementptr inbounds ([3 x i8], [3 x i8]* @.str.1, i64 0, i64 0))
  %87 = call dereferenceable(272) %"class.std::basic_ostream"* @_ZNSolsEPFRSoS_E(%"class.std::basic_ostream"* %86, %"class.std::basic_ostream"* (%"class.std::basic_ostream"*)* @_ZSt4endlIcSt11char_traitsIcEERSt13basic_ostreamIT_T0_ES6_)
  br label %88

88:                                               ; preds = %85, %82
  %89 = load i32, i32* %1, align 4
  ret i32 %89
}

declare dso_local dereferenceable(280) %"class.std::basic_istream"* @_ZNSirsERi(%"class.std::basic_istream"*, i32* dereferenceable(4)) #1

declare dso_local void @qsort(i8*, i64, i64, i32 (i8*, i8*)*) #1

; Function Attrs: noinline nounwind uwtable
define dso_local i32 @_Z9mycomparePKvS0_(i8* %0, i8* %1) #5 {
  %3 = alloca i8*, align 8
  %4 = alloca i8*, align 8
  store i8* %0, i8** %3, align 8
  store i8* %1, i8** %4, align 8
  %5 = load i8*, i8** %3, align 8
  %6 = bitcast i8* %5 to i32*
  %7 = load i32, i32* %6, align 4
  %8 = load i8*, i8** %4, align 8
  %9 = bitcast i8* %8 to i32*
  %10 = load i32, i32* %9, align 4
  %11 = sub nsw i32 %7, %10
  ret i32 %11
}

declare dso_local dereferenceable(272) %"class.std::basic_ostream"* @_ZStlsISt11char_traitsIcEERSt13basic_ostreamIcT_ES5_PKc(%"class.std::basic_ostream"* dereferenceable(272), i8*) #1

declare dso_local dereferenceable(272) %"class.std::basic_ostream"* @_ZNSolsEPFRSoS_E(%"class.std::basic_ostream"*, %"class.std::basic_ostream"* (%"class.std::basic_ostream"*)*) #1

declare dso_local dereferenceable(272) %"class.std::basic_ostream"* @_ZSt4endlIcSt11char_traitsIcEERSt13basic_ostreamIT_T0_ES6_(%"class.std::basic_ostream"* dereferenceable(272)) #1

; Function Attrs: noinline uwtable
define internal void @_GLOBAL__sub_I_3299.cpp() #0 section ".text.startup" {
  call void @__cxx_global_var_init()
  ret void
}


!llvm.module.flags = !{!0}
!llvm.ident = !{!1}

!0 = !{i32 1, !"wchar_size", i32 4}
!1 = !{!"clang version 10.0.0-4ubuntu1 "}
